; Function Attrs: nounwind uwtable
define hidden void @zim_SplPriorityQueue_extract(ptr noundef %0, ptr noundef %1) #0 {
  %3 = alloca %struct._spl_pqueue_elem, align 8
  %4 = getelementptr inbounds i8, ptr %0, i64 32
  %5 = getelementptr inbounds i8, ptr %0, i64 44
  %6 = load i32, ptr %5, align 4
  %.not = icmp eq i32 %6, 0
  br i1 %.not, label %.critedge, label %7

7:                                                ; preds = %2
  tail call void @zend_wrong_parameters_none_error() #14
  %8 = load ptr, ptr getelementptr inbounds (%struct._zend_executor_globals, ptr @executor_globals, i64 0, i32 50), align 8
  %9 = icmp ne ptr %8, null
  tail call void @llvm.assume(i1 %9)
  br label %33

.critedge:                                        ; preds = %2
  %10 = load ptr, ptr %4, align 8
  %11 = getelementptr inbounds i8, ptr %10, i64 -32
  %12 = load ptr, ptr %11, align 8
  %13 = getelementptr inbounds i8, ptr %12, i64 36
  %14 = load i32, ptr %13, align 4
  %15 = and i32 %14, 1
  %.not7 = icmp eq i32 %15, 0
  br i1 %.not7, label %21, label %16

16:                                               ; preds = %.critedge
  %17 = load ptr, ptr @spl_ce_RuntimeException, align 8
  %18 = tail call ptr @zend_throw_exception(ptr noundef %17, ptr noundef nonnull @.str, i64 noundef 0) #14
  %19 = load ptr, ptr getelementptr inbounds (%struct._zend_executor_globals, ptr @executor_globals, i64 0, i32 50), align 8
  %20 = icmp ne ptr %19, null
  tail call void @llvm.assume(i1 %20)
  br label %33

21:                                               ; preds = %.critedge
  %22 = call fastcc i32 @spl_ptr_heap_delete_top(ptr noundef nonnull %12, ptr noundef nonnull %3, ptr noundef nonnull %4), !range !4
  %23 = icmp eq i32 %22, -1
  br i1 %23, label %24, label %29

24:                                               ; preds = %21
  %25 = load ptr, ptr @spl_ce_RuntimeException, align 8
  %26 = call ptr @zend_throw_exception(ptr noundef %25, ptr noundef nonnull @.str.1, i64 noundef 0) #14
  %27 = load ptr, ptr getelementptr inbounds (%struct._zend_executor_globals, ptr @executor_globals, i64 0, i32 50), align 8
  %28 = icmp ne ptr %27, null
  call void @llvm.assume(i1 %28)
  br label %33

29:                                               ; preds = %21
  %30 = getelementptr inbounds i8, ptr %10, i64 -24
  %31 = load i32, ptr %30, align 8
  call fastcc void @spl_pqueue_extract_helper(ptr noundef %1, ptr noundef nonnull %3, i32 noundef %31)
  call void @zval_ptr_dtor(ptr noundef nonnull %3) #14
  %32 = getelementptr inbounds i8, ptr %3, i64 16
  call void @zval_ptr_dtor(ptr noundef nonnull %32) #14
  br label %33

33:                                               ; preds = %29, %24, %16, %7
  ret void
}